target datalayout = "e-m:e-p270:32:32-p271:32:32-p272:64:64-i64:64-i128:128-f80:128-n8:16:32:64-S128"
target triple = "x86_64-pc-linux-gnu"

%struct.rust_demangler = type { ptr, i64, ptr, ptr, i64, i8, i8, i8, i32, i64 }

@.str.38 = private unnamed_addr constant [4 x i8] c"%lu\00", align 1

; Function Attrs: nounwind
define internal void @print_str(ptr noundef %0, ptr noundef %1, i64 noundef %2) #0 {
  %4 = alloca ptr, align 8
  %5 = alloca ptr, align 8
  %6 = alloca i64, align 8
  store ptr %0, ptr %4, align 8, !tbaa !30
  store ptr %1, ptr %5, align 8, !tbaa !3
  store i64 %2, ptr %6, align 8, !tbaa !33
  %7 = load ptr, ptr %4, align 8, !tbaa !30
  %8 = getelementptr inbounds nuw %struct.rust_demangler, ptr %7, i32 0, i32 5
  %9 = load i8, ptr %8, align 8, !tbaa !19, !range !27, !noundef !28
  %10 = trunc i8 %9 to i1
  br i1 %10, label %25, label %11

11:                                               ; preds = %3
  %12 = load ptr, ptr %4, align 8, !tbaa !30
  %13 = getelementptr inbounds nuw %struct.rust_demangler, ptr %12, i32 0, i32 6
  %14 = load i8, ptr %13, align 1, !tbaa !20, !range !27, !noundef !28
  %15 = trunc i8 %14 to i1
  br i1 %15, label %25, label %16

16:                                               ; preds = %11
  %17 = load ptr, ptr %4, align 8, !tbaa !30
  %18 = getelementptr inbounds nuw %struct.rust_demangler, ptr %17, i32 0, i32 3
  %19 = load ptr, ptr %18, align 8, !tbaa !17
  %20 = load ptr, ptr %5, align 8, !tbaa !3
  %21 = load i64, ptr %6, align 8, !tbaa !33
  %22 = load ptr, ptr %4, align 8, !tbaa !30
  %23 = getelementptr inbounds nuw %struct.rust_demangler, ptr %22, i32 0, i32 2
  %24 = load ptr, ptr %23, align 8, !tbaa !16
  call void %19(ptr noundef %20, i64 noundef %21, ptr noundef %24)
  br label %25

25:                                               ; preds = %16, %11, %3
  ret void
}

; Function Attrs: nounwind
define internal void @print_uint64(ptr noundef %0, i64 noundef %1) #0 {
  %3 = alloca ptr, align 8
  %4 = alloca i64, align 8
  %5 = alloca [21 x i8], align 16
  store ptr %0, ptr %3, align 8, !tbaa !30
  store i64 %1, ptr %4, align 8, !tbaa !33
  call void @llvm.lifetime.start.p0(i64 21, ptr %5) #8
  %6 = getelementptr inbounds [21 x i8], ptr %5, i64 0, i64 0
  %7 = load i64, ptr %4, align 8, !tbaa !33
  %8 = call i32 (ptr, ptr, ...) @sprintf(ptr noundef %6, ptr noundef @.str.38, i64 noundef %7) #8
  %9 = load ptr, ptr %3, align 8, !tbaa !30
  %10 = getelementptr inbounds [21 x i8], ptr %5, i64 0, i64 0
  %11 = getelementptr inbounds [21 x i8], ptr %5, i64 0, i64 0
  %12 = call i64 @strlen(ptr noundef %11) #9
  call void @print_str(ptr noundef %9, ptr noundef %10, i64 noundef %12)
  call void @llvm.lifetime.end.p0(i64 21, ptr %5) #8
  ret void
}