; Function Attrs: nounwind
define internal fastcc void @print_uint64(ptr noundef nonnull readonly captures(none) %0, i64 noundef %1) unnamed_addr #0 {
  %3 = alloca [21 x i8], align 16
  call void @llvm.lifetime.start.p0(i64 21, ptr nonnull %3) #11
  %4 = call i32 (ptr, ptr, ...) @sprintf(ptr noundef nonnull dereferenceable(1) %3, ptr noundef nonnull dereferenceable(1) @.str.38, i64 noundef %1) #11
  %5 = call i64 @strlen(ptr noundef nonnull dereferenceable(1) %3) #12
  %6 = getelementptr inbounds nuw i8, ptr %0, i64 40
  %7 = load i8, ptr %6, align 8, !tbaa !15, !range !24, !noundef !25
  %8 = trunc nuw i8 %7 to i1
  br i1 %8, label %print_str.exit, label %9

9:                                                ; preds = %2
  %10 = getelementptr inbounds nuw i8, ptr %0, i64 41
  %11 = load i8, ptr %10, align 1, !tbaa !16, !range !24, !noundef !25
  %12 = trunc nuw i8 %11 to i1
  br i1 %12, label %print_str.exit, label %13

13:                                               ; preds = %9
  %14 = getelementptr inbounds nuw i8, ptr %0, i64 24
  %15 = load ptr, ptr %14, align 8, !tbaa !13
  %16 = getelementptr inbounds nuw i8, ptr %0, i64 16
  %17 = load ptr, ptr %16, align 8, !tbaa !12
  call void %15(ptr noundef nonnull %3, i64 noundef %5, ptr noundef %17) #11
  br label %print_str.exit

print_str.exit:                                   ; preds = %2, %9, %13
  call void @llvm.lifetime.end.p0(i64 21, ptr nonnull %3) #11
  ret void
}